target datalayout = "e-m:e-p270:32:32-p271:32:32-p272:64:64-i64:64-i128:128-f80:128-n8:16:32:64-S128"
target triple = "x86_64-pc-linux-gnu"

%struct.reassembly_table = type { ptr, ptr, ptr, ptr, ptr }
%struct._packet_info = type { ptr, ptr, i32, i32, %struct.nstime_t, %struct.nstime_t, %struct.nstime_t, i8, ptr, ptr, ptr, ptr, %struct._address, %struct._address, %struct._address, %struct._address, %struct._address, %struct._address, i32, ptr, i8, [3 x i8], %struct.anon, i32, i32, i32, i32, ptr, i8, ptr, ptr, i16, i16, i32, i32, i16, i32, i32, ptr, ptr, ptr, i8, i8, i16, i16, i16, i32, i16, i16, ptr, ptr, ptr, ptr, ptr, i32, i32 }
%struct.nstime_t = type { i64, i32 }
%struct._address = type { i32, i32, ptr, ptr }
%struct.anon = type { i8, [3 x i8] }
%struct.ieee802154_packet = type { i32, i32, i32, i32, i8, i8, i8, i8, i8, i8, i8, i8, i8, i8, i8, i8, i16, i16, i16, i64, i16, i64, i32, i32, i8, i32, i8, i64, %union.anon, i8, i8, ptr }
%union.anon = type { i64 }

@hf_wisun_netricity_sc_flags = internal global i32 0, align 4
@hf_wisun_netricity_sc_segment_count = internal global i32 0, align 4
@hf_wisun_netricity_sc_segment_length = internal global i32 0, align 4
@ett_wisun_netricity_sc = internal global i32 0, align 4
@ett_wisun_netricity_sc_bitmask = internal global i32 0, align 4
@proto_wisun_netricity_sc = internal global i32 0, align 4
@netricity_reassembly_table = internal global %struct.reassembly_table zeroinitializer, align 8
@ieee802154_nofcs_handle = internal global ptr null, align 8
@.str.532 = private unnamed_addr constant [17 x i8] c"Wi-SUN Netricity\00", align 1
@.str.533 = private unnamed_addr constant [21 x i8] c"Reassembled segments\00", align 1
@.str.534 = private unnamed_addr constant [27 x i8] c" (Reassembled %u segments)\00", align 1
@.str.535 = private unnamed_addr constant [14 x i8] c" (Segment %u)\00", align 1

; Function Attrs: null_pointer_is_valid sspstrong uwtable
define internal i32 @dissect_wisun_netricity_sc(ptr noundef %0, ptr noundef %1, ptr noundef %2, ptr noundef %3) #0 {
  %5 = alloca i32, align 4
  %6 = alloca ptr, align 8
  %7 = alloca ptr, align 8
  %8 = alloca ptr, align 8
  %9 = alloca ptr, align 8
  %10 = alloca i32, align 4
  %11 = alloca ptr, align 8
  %12 = alloca ptr, align 8
  %13 = alloca i8, align 1
  %14 = alloca i32, align 4
  %15 = alloca i32, align 4
  %16 = alloca i8, align 1
  %17 = alloca ptr, align 8
  %18 = alloca ptr, align 8
  %19 = alloca ptr, align 8
  %20 = alloca i32, align 4
  %21 = alloca i32, align 4
  %22 = alloca i8, align 1
  %23 = alloca ptr, align 8
  %24 = alloca ptr, align 8
  %25 = alloca ptr, align 8
  %26 = alloca i32, align 4
  store ptr %0, ptr %6, align 8
  store ptr %1, ptr %7, align 8
  store ptr %2, ptr %8, align 8
  store ptr %3, ptr %9, align 8
  call void @llvm.lifetime.start.p0(i64 4, ptr %10) #7
  store i32 0, ptr %10, align 4
  %27 = load ptr, ptr %7, align 8
  %28 = getelementptr inbounds nuw %struct._packet_info, ptr %27, i32 0, i32 1
  %29 = load ptr, ptr %28, align 8
  call void @col_set_str(ptr noundef %29, i32 noundef 35, ptr noundef @.str.532)
  call void @llvm.lifetime.start.p0(i64 8, ptr %11) #7
  %30 = load ptr, ptr %8, align 8
  %31 = load i32, ptr @proto_wisun_netricity_sc, align 4
  %32 = load ptr, ptr %6, align 8
  %33 = load i32, ptr %10, align 4
  %34 = call ptr @proto_tree_add_item(ptr noundef %30, i32 noundef %31, ptr noundef %32, i32 noundef %33, i32 noundef -1, i32 noundef 0)
  store ptr %34, ptr %11, align 8
  call void @llvm.lifetime.start.p0(i64 8, ptr %12) #7
  %35 = load ptr, ptr %11, align 8
  %36 = load i32, ptr @ett_wisun_netricity_sc, align 4
  %37 = call ptr @proto_item_add_subtree(ptr noundef %35, i32 noundef %36)
  store ptr %37, ptr %12, align 8
  call void @llvm.lifetime.start.p0(i64 1, ptr %13) #7
  %38 = load ptr, ptr %6, align 8
  %39 = call zeroext i8 @tvb_get_uint8(ptr noundef %38, i32 noundef 0)
  %40 = zext i8 %39 to i32
  %41 = and i32 %40, 1
  %42 = icmp ne i32 %41, 0
  %43 = zext i1 %42 to i8
  store i8 %43, ptr %13, align 1
  %44 = load ptr, ptr %12, align 8
  %45 = load ptr, ptr %6, align 8
  %46 = load i32, ptr %10, align 4
  %47 = add i32 %46, 1
  store i32 %47, ptr %10, align 4
  %48 = load i32, ptr @hf_wisun_netricity_sc_flags, align 4
  %49 = load i32, ptr @ett_wisun_netricity_sc_bitmask, align 4
  %50 = call ptr @proto_tree_add_bitmask(ptr noundef %44, ptr noundef %45, i32 noundef %46, i32 noundef %48, i32 noundef %49, ptr noundef @dissect_wisun_netricity_sc.fields_sc, i32 noundef 0)
  call void @llvm.lifetime.start.p0(i64 4, ptr %14) #7
  call void @llvm.lifetime.start.p0(i64 4, ptr %15) #7
  %51 = load ptr, ptr %12, align 8
  %52 = load i32, ptr @hf_wisun_netricity_sc_segment_count, align 4
  %53 = load ptr, ptr %6, align 8
  %54 = load i32, ptr %10, align 4
  %55 = call ptr @proto_tree_add_item_ret_uint(ptr noundef %51, i32 noundef %52, ptr noundef %53, i32 noundef %54, i32 noundef 2, i32 noundef 0, ptr noundef %14)
  %56 = load ptr, ptr %12, align 8
  %57 = load i32, ptr @hf_wisun_netricity_sc_segment_length, align 4
  %58 = load ptr, ptr %6, align 8
  %59 = load i32, ptr %10, align 4
  %60 = call ptr @proto_tree_add_item_ret_uint(ptr noundef %56, i32 noundef %57, ptr noundef %58, i32 noundef %59, i32 noundef 2, i32 noundef 0, ptr noundef %15)
  %61 = load i32, ptr %10, align 4
  %62 = add i32 %61, 2
  store i32 %62, ptr %10, align 4
  call void @llvm.lifetime.start.p0(i64 1, ptr %16) #7
  %63 = load i8, ptr %13, align 1, !range !6, !noundef !7
  %64 = trunc i8 %63 to i1
  br i1 %64, label %65, label %68

65:                                               ; preds = %4
  %66 = load i32, ptr %14, align 4
  %67 = icmp ne i32 %66, 0
  br label %68

68:                                               ; preds = %65, %4
  %69 = phi i1 [ true, %4 ], [ %67, %65 ]
  %70 = zext i1 %69 to i8
  store i8 %70, ptr %16, align 1
  call void @llvm.lifetime.start.p0(i64 8, ptr %17) #7
  call void @llvm.lifetime.start.p0(i64 8, ptr %18) #7
  call void @llvm.lifetime.start.p0(i64 8, ptr %19) #7
  %71 = load ptr, ptr %6, align 8
  %72 = load i32, ptr %10, align 4
  %73 = call ptr @tvb_new_subset_remaining(ptr noundef %71, i32 noundef %72)
  store ptr %73, ptr %19, align 8
  call void @llvm.lifetime.start.p0(i64 4, ptr %20) #7
  %74 = load ptr, ptr %19, align 8
  %75 = load ptr, ptr %7, align 8
  %76 = load i8, ptr %16, align 1, !range !6, !noundef !7
  %77 = trunc i8 %76 to i1
  br i1 %77, label %78, label %80

78:                                               ; preds = %68
  %79 = load ptr, ptr %12, align 8
  br label %82

80:                                               ; preds = %68
  %81 = load ptr, ptr %8, align 8
  br label %82

82:                                               ; preds = %80, %78
  %83 = phi ptr [ %79, %78 ], [ %81, %80 ]
  %84 = load i32, ptr %14, align 4
  %85 = icmp eq i32 %84, 0
  %86 = select i1 %85, i32 0, i32 2
  %87 = call i32 @ieee802154_dissect_header(ptr noundef %74, ptr noundef %75, ptr noundef %83, i32 noundef %86, ptr noundef %17, ptr noundef %18)
  store i32 %87, ptr %20, align 4
  %88 = load i32, ptr %20, align 4
  %89 = icmp ne i32 %88, 0
  br i1 %89, label %93, label %90

90:                                               ; preds = %82
  %91 = load ptr, ptr %6, align 8
  %92 = call i32 @tvb_captured_length(ptr noundef %91)
  store i32 %92, ptr %5, align 4
  store i32 1, ptr %21, align 4
  br label %199

93:                                               ; preds = %82
  %94 = load ptr, ptr %19, align 8
  %95 = load i32, ptr %20, align 4
  %96 = load i32, ptr %15, align 4
  %97 = add i32 %95, %96
  %98 = call ptr @tvb_new_subset_length(ptr noundef %94, i32 noundef 0, i32 noundef %97)
  store ptr %98, ptr %19, align 8
  %99 = load i8, ptr %16, align 1, !range !6, !noundef !7
  %100 = trunc i8 %99 to i1
  br i1 %100, label %101, label %172

101:                                              ; preds = %93
  call void @llvm.lifetime.start.p0(i64 1, ptr %22) #7
  %102 = load ptr, ptr %7, align 8
  %103 = getelementptr inbounds nuw %struct._packet_info, ptr %102, i32 0, i32 20
  %104 = load i8, ptr %103, align 8, !range !6, !noundef !7
  %105 = trunc i8 %104 to i1
  %106 = zext i1 %105 to i8
  store i8 %106, ptr %22, align 1
  %107 = load ptr, ptr %7, align 8
  %108 = getelementptr inbounds nuw %struct._packet_info, ptr %107, i32 0, i32 20
  store i8 1, ptr %108, align 8
  call void @llvm.lifetime.start.p0(i64 8, ptr %23) #7
  %109 = load ptr, ptr %19, align 8
  %110 = load i32, ptr %14, align 4
  %111 = icmp eq i32 %110, 0
  br i1 %111, label %112, label %113

112:                                              ; preds = %101
  br label %115

113:                                              ; preds = %101
  %114 = load i32, ptr %20, align 4
  br label %115

115:                                              ; preds = %113, %112
  %116 = phi i32 [ 0, %112 ], [ %114, %113 ]
  %117 = load ptr, ptr %7, align 8
  %118 = load ptr, ptr %18, align 8
  %119 = getelementptr inbounds nuw %struct.ieee802154_packet, ptr %118, i32 0, i32 12
  %120 = load i8, ptr %119, align 8
  %121 = zext i8 %120 to i32
  %122 = load i32, ptr %14, align 4
  %123 = load i32, ptr %14, align 4
  %124 = icmp eq i32 %123, 0
  br i1 %124, label %125, label %127

125:                                              ; preds = %115
  %126 = load i32, ptr %20, align 4
  br label %128

127:                                              ; preds = %115
  br label %128

128:                                              ; preds = %127, %125
  %129 = phi i32 [ %126, %125 ], [ 0, %127 ]
  %130 = load i32, ptr %15, align 4
  %131 = add i32 %129, %130
  %132 = load i8, ptr %13, align 1, !range !6, !noundef !7
  %133 = trunc i8 %132 to i1
  %134 = xor i1 %133, true
  %135 = call ptr @fragment_add_seq_check(ptr noundef @netricity_reassembly_table, ptr noundef %109, i32 noundef %116, ptr noundef %117, i32 noundef %121, ptr noundef null, i32 noundef %122, i32 noundef %131, i1 noundef zeroext %134)
  store ptr %135, ptr %23, align 8
  call void @llvm.lifetime.start.p0(i64 8, ptr %24) #7
  %136 = load ptr, ptr %6, align 8
  %137 = load i32, ptr %10, align 4
  %138 = load ptr, ptr %7, align 8
  %139 = load ptr, ptr %23, align 8
  %140 = load ptr, ptr %12, align 8
  %141 = call ptr @process_reassembled_data(ptr noundef %136, i32 noundef %137, ptr noundef %138, ptr noundef @.str.533, ptr noundef %139, ptr noundef @netricity_scr_frag_items, ptr noundef null, ptr noundef %140)
  store ptr %141, ptr %24, align 8
  %142 = load ptr, ptr %24, align 8
  %143 = icmp ne ptr %142, null
  br i1 %143, label %144, label %155

144:                                              ; preds = %128
  %145 = load ptr, ptr @ieee802154_nofcs_handle, align 8
  %146 = load ptr, ptr %24, align 8
  %147 = load ptr, ptr %7, align 8
  %148 = load ptr, ptr %8, align 8
  %149 = call i32 @call_dissector(ptr noundef %145, ptr noundef %146, ptr noundef %147, ptr noundef %148)
  %150 = load ptr, ptr %7, align 8
  %151 = getelementptr inbounds nuw %struct._packet_info, ptr %150, i32 0, i32 1
  %152 = load ptr, ptr %151, align 8
  %153 = load i32, ptr %14, align 4
  %154 = add i32 %153, 1
  call void (ptr, i32, ptr, ...) @col_append_fstr(ptr noundef %152, i32 noundef 25, ptr noundef @.str.534, i32 noundef %154)
  br label %166

155:                                              ; preds = %128
  %156 = load ptr, ptr %19, align 8
  %157 = load i32, ptr %20, align 4
  %158 = call ptr @tvb_new_subset_remaining(ptr noundef %156, i32 noundef %157)
  %159 = load ptr, ptr %7, align 8
  %160 = load ptr, ptr %12, align 8
  %161 = call i32 @call_data_dissector(ptr noundef %158, ptr noundef %159, ptr noundef %160)
  %162 = load ptr, ptr %7, align 8
  %163 = getelementptr inbounds nuw %struct._packet_info, ptr %162, i32 0, i32 1
  %164 = load ptr, ptr %163, align 8
  %165 = load i32, ptr %14, align 4
  call void (ptr, i32, ptr, ...) @col_append_fstr(ptr noundef %164, i32 noundef 25, ptr noundef @.str.535, i32 noundef %165)
  br label %166

166:                                              ; preds = %155, %144
  %167 = load i8, ptr %22, align 1, !range !6, !noundef !7
  %168 = trunc i8 %167 to i1
  %169 = load ptr, ptr %7, align 8
  %170 = getelementptr inbounds nuw %struct._packet_info, ptr %169, i32 0, i32 20
  %171 = zext i1 %168 to i8
  store i8 %171, ptr %170, align 8
  call void @llvm.lifetime.end.p0(i64 8, ptr %24) #7
  call void @llvm.lifetime.end.p0(i64 8, ptr %23) #7
  call void @llvm.lifetime.end.p0(i64 1, ptr %22) #7
  br label %196

172:                                              ; preds = %93
  call void @llvm.lifetime.start.p0(i64 8, ptr %25) #7
  %173 = load ptr, ptr %19, align 8
  %174 = load i32, ptr %20, align 4
  %175 = load ptr, ptr %7, align 8
  %176 = load ptr, ptr %17, align 8
  %177 = load ptr, ptr %18, align 8
  %178 = call ptr @ieee802154_decrypt_payload(ptr noundef %173, i32 noundef %174, ptr noundef %175, ptr noundef %176, ptr noundef %177)
  store ptr %178, ptr %25, align 8
  %179 = load ptr, ptr %25, align 8
  %180 = icmp ne ptr %179, null
  br i1 %180, label %181, label %195

181:                                              ; preds = %172
  call void @llvm.lifetime.start.p0(i64 4, ptr %26) #7
  %182 = load ptr, ptr %25, align 8
  %183 = load ptr, ptr %7, align 8
  %184 = load ptr, ptr %17, align 8
  %185 = load ptr, ptr %18, align 8
  %186 = call i32 @ieee802154_dissect_payload_ies(ptr noundef %182, ptr noundef %183, ptr noundef %184, ptr noundef %185)
  store i32 %186, ptr %26, align 4
  %187 = load ptr, ptr %25, align 8
  %188 = load i32, ptr %26, align 4
  %189 = call ptr @tvb_new_subset_remaining(ptr noundef %187, i32 noundef %188)
  store ptr %189, ptr %25, align 8
  %190 = load ptr, ptr %25, align 8
  %191 = load ptr, ptr %7, align 8
  %192 = load ptr, ptr %17, align 8
  %193 = load ptr, ptr %18, align 8
  %194 = call i32 @ieee802154_dissect_frame_payload(ptr noundef %190, ptr noundef %191, ptr noundef %192, ptr noundef %193, i1 noundef zeroext true)
  call void @llvm.lifetime.end.p0(i64 4, ptr %26) #7
  br label %195

195:                                              ; preds = %181, %172
  call void @llvm.lifetime.end.p0(i64 8, ptr %25) #7
  br label %196

196:                                              ; preds = %195, %166
  %197 = load ptr, ptr %6, align 8
  %198 = call i32 @tvb_captured_length(ptr noundef %197)
  store i32 %198, ptr %5, align 4
  store i32 1, ptr %21, align 4
  br label %199

199:                                              ; preds = %196, %90
  call void @llvm.lifetime.end.p0(i64 4, ptr %20) #7
  call void @llvm.lifetime.end.p0(i64 8, ptr %19) #7
  call void @llvm.lifetime.end.p0(i64 8, ptr %18) #7
  call void @llvm.lifetime.end.p0(i64 8, ptr %17) #7
  call void @llvm.lifetime.end.p0(i64 1, ptr %16) #7
  call void @llvm.lifetime.end.p0(i64 4, ptr %15) #7
  call void @llvm.lifetime.end.p0(i64 4, ptr %14) #7
  call void @llvm.lifetime.end.p0(i64 1, ptr %13) #7
  call void @llvm.lifetime.end.p0(i64 8, ptr %12) #7
  call void @llvm.lifetime.end.p0(i64 8, ptr %11) #7
  call void @llvm.lifetime.end.p0(i64 4, ptr %10) #7
  %200 = load i32, ptr %5, align 4
  ret i32 %200
}