; Function Attrs: null_pointer_is_valid sspstrong uwtable
define internal i32 @dissect_wisun_netricity_sc(ptr noundef %0, ptr noundef %1, ptr noundef %2, ptr readnone captures(none) %3) #0 {
  %5 = alloca i32, align 4
  %6 = alloca i32, align 4
  %7 = alloca ptr, align 8
  %8 = alloca ptr, align 8
  %9 = getelementptr inbounds nuw i8, ptr %1, i64 8
  %10 = load ptr, ptr %9, align 8
  tail call void @col_set_str(ptr noundef %10, i32 noundef 35, ptr noundef nonnull @.str.532)
  %11 = load i32, ptr @proto_wisun_netricity_sc, align 4
  %12 = tail call ptr @proto_tree_add_item(ptr noundef %2, i32 noundef %11, ptr noundef %0, i32 noundef 0, i32 noundef -1, i32 noundef 0)
  %13 = load i32, ptr @ett_wisun_netricity_sc, align 4
  %14 = tail call ptr @proto_item_add_subtree(ptr noundef %12, i32 noundef %13)
  %15 = tail call zeroext i8 @tvb_get_uint8(ptr noundef %0, i32 noundef 0)
  %16 = and i8 %15, 1
  %.not = icmp eq i8 %16, 0
  %17 = load i32, ptr @hf_wisun_netricity_sc_flags, align 4
  %18 = load i32, ptr @ett_wisun_netricity_sc_bitmask, align 4
  %19 = tail call ptr @proto_tree_add_bitmask(ptr noundef %14, ptr noundef %0, i32 noundef 0, i32 noundef %17, i32 noundef %18, ptr noundef nonnull @dissect_wisun_netricity_sc.fields_sc, i32 noundef 0)
  call void @llvm.lifetime.start.p0(i64 4, ptr nonnull %5) #5
  call void @llvm.lifetime.start.p0(i64 4, ptr nonnull %6) #5
  %20 = load i32, ptr @hf_wisun_netricity_sc_segment_count, align 4
  %21 = call ptr @proto_tree_add_item_ret_uint(ptr noundef %14, i32 noundef %20, ptr noundef %0, i32 noundef 1, i32 noundef 2, i32 noundef 0, ptr noundef nonnull %5)
  %22 = load i32, ptr @hf_wisun_netricity_sc_segment_length, align 4
  %23 = call ptr @proto_tree_add_item_ret_uint(ptr noundef %14, i32 noundef %22, ptr noundef %0, i32 noundef 1, i32 noundef 2, i32 noundef 0, ptr noundef nonnull %6)
  %24 = load i32, ptr %5, align 4
  %25 = icmp ne i32 %24, 0
  %26 = select i1 %.not, i1 true, i1 %25
  call void @llvm.lifetime.start.p0(i64 8, ptr nonnull %7) #5
  call void @llvm.lifetime.start.p0(i64 8, ptr nonnull %8) #5
  %27 = call ptr @tvb_new_subset_remaining(ptr noundef %0, i32 noundef 3)
  %28 = select i1 %26, ptr %14, ptr %2
  %29 = load i32, ptr %5, align 4
  %30 = icmp eq i32 %29, 0
  %31 = select i1 %30, i32 0, i32 2
  %32 = call i32 @ieee802154_dissect_header(ptr noundef %27, ptr noundef %1, ptr noundef %28, i32 noundef %31, ptr noundef nonnull %7, ptr noundef nonnull %8)
  %.not67 = icmp eq i32 %32, 0
  br i1 %.not67, label %76, label %33

33:                                               ; preds = %4
  %34 = load i32, ptr %6, align 4
  %35 = add i32 %34, %32
  %36 = call ptr @tvb_new_subset_length(ptr noundef %27, i32 noundef 0, i32 noundef %35)
  br i1 %26, label %37, label %64

37:                                               ; preds = %33
  %38 = getelementptr inbounds nuw i8, ptr %1, i64 272
  %39 = load i8, ptr %38, align 8, !range !6, !noundef !7
  store i8 1, ptr %38, align 8
  %40 = load i32, ptr %5, align 4
  %41 = icmp eq i32 %40, 0
  %42 = select i1 %41, i32 0, i32 %32
  %43 = load ptr, ptr %8, align 8
  %44 = getelementptr inbounds nuw i8, ptr %43, i64 24
  %45 = load i8, ptr %44, align 8
  %46 = zext i8 %45 to i32
  %47 = select i1 %41, i32 %32, i32 0
  %48 = load i32, ptr %6, align 4
  %49 = add i32 %48, %47
  %50 = call ptr @fragment_add_seq_check(ptr noundef nonnull @netricity_reassembly_table, ptr noundef %36, i32 noundef %42, ptr noundef %1, i32 noundef %46, ptr noundef null, i32 noundef %40, i32 noundef %49, i1 noundef zeroext %.not)
  %51 = call ptr @process_reassembled_data(ptr noundef %0, i32 noundef 3, ptr noundef %1, ptr noundef nonnull @.str.533, ptr noundef %50, ptr noundef nonnull @netricity_scr_frag_items, ptr noundef null, ptr noundef %14)
  %.not69 = icmp eq ptr %51, null
  br i1 %.not69, label %58, label %52

52:                                               ; preds = %37
  %53 = load ptr, ptr @ieee802154_nofcs_handle, align 8
  %54 = call i32 @call_dissector(ptr noundef %53, ptr noundef nonnull %51, ptr noundef %1, ptr noundef %2)
  %55 = load ptr, ptr %9, align 8
  %56 = load i32, ptr %5, align 4
  %57 = add i32 %56, 1
  call void (ptr, i32, ptr, ...) @col_append_fstr(ptr noundef %55, i32 noundef 25, ptr noundef nonnull @.str.534, i32 noundef %57)
  br label %63

58:                                               ; preds = %37
  %59 = call ptr @tvb_new_subset_remaining(ptr noundef %36, i32 noundef %32)
  %60 = call i32 @call_data_dissector(ptr noundef %59, ptr noundef %1, ptr noundef %14)
  %61 = load ptr, ptr %9, align 8
  %62 = load i32, ptr %5, align 4
  call void (ptr, i32, ptr, ...) @col_append_fstr(ptr noundef %61, i32 noundef 25, ptr noundef nonnull @.str.535, i32 noundef %62)
  br label %63

63:                                               ; preds = %58, %52
  store i8 %39, ptr %38, align 8
  br label %76

64:                                               ; preds = %33
  %65 = load ptr, ptr %7, align 8
  %66 = load ptr, ptr %8, align 8
  %67 = call ptr @ieee802154_decrypt_payload(ptr noundef %36, i32 noundef %32, ptr noundef %1, ptr noundef %65, ptr noundef %66)
  %.not68 = icmp eq ptr %67, null
  br i1 %.not68, label %76, label %68

68:                                               ; preds = %64
  %69 = load ptr, ptr %7, align 8
  %70 = load ptr, ptr %8, align 8
  %71 = call i32 @ieee802154_dissect_payload_ies(ptr noundef nonnull %67, ptr noundef %1, ptr noundef %69, ptr noundef %70)
  %72 = call ptr @tvb_new_subset_remaining(ptr noundef nonnull %67, i32 noundef %71)
  %73 = load ptr, ptr %7, align 8
  %74 = load ptr, ptr %8, align 8
  %75 = call i32 @ieee802154_dissect_frame_payload(ptr noundef %72, ptr noundef %1, ptr noundef %73, ptr noundef %74, i1 noundef zeroext true)
  br label %76

76:                                               ; preds = %63, %68, %64, %4
  %77 = call i32 @tvb_captured_length(ptr noundef %0)
  call void @llvm.lifetime.end.p0(i64 8, ptr nonnull %8) #5
  call void @llvm.lifetime.end.p0(i64 8, ptr nonnull %7) #5
  call void @llvm.lifetime.end.p0(i64 4, ptr nonnull %6) #5
  call void @llvm.lifetime.end.p0(i64 4, ptr nonnull %5) #5
  ret i32 %77
}